target datalayout = "e-m:e-p270:32:32-p271:32:32-p272:64:64-i64:64-i128:128-f80:128-n8:16:32:64-S128"
target triple = "x86_64-pc-linux-gnu"

%"struct.std::integral_constant" = type { i8 }
%"class.gmxapi::Context" = type { %"class.std::shared_ptr" }
%"class.std::shared_ptr" = type { %"class.std::__shared_ptr" }
%"class.std::__shared_ptr" = type { ptr, %"class.std::__shared_count" }
%"class.std::__shared_count" = type { ptr }

@_ZTIN6gmxapi10UsageErrorE = linkonce_odr constant { ptr, ptr, ptr } { ptr getelementptr inbounds (ptr, ptr @_ZTVN10__cxxabiv120__si_class_type_infoE, i64 2), ptr @_ZTSN6gmxapi10UsageErrorE, ptr @_ZTIN6gmxapi14BasicExceptionINS_10UsageErrorEEE }, comdat, align 8
@.str.2 = private unnamed_addr constant [57 x i8] c"Only one thread-MPI Simulation per Context is supported.\00", align 1

; Function Attrs: mustprogress uwtable
define internal void @_ZN6gmxapiL13createContextERKNS_18ResourceAssignmentERKSt17integral_constantIbLb0EE(ptr dead_on_unwind noalias writable sret(%"class.gmxapi::Context") align 8 %0, ptr noundef nonnull align 8 dereferenceable(8) %1, ptr noundef nonnull align 1 dereferenceable(1) %2) #0 personality ptr @__gxx_personality_v0 {
  %4 = alloca ptr, align 8
  %5 = alloca ptr, align 8
  %6 = alloca ptr, align 8
  %7 = alloca ptr, align 8
  %8 = alloca i32, align 4
  store ptr %0, ptr %4, align 8
  store ptr %1, ptr %5, align 8, !tbaa !117
  store ptr %2, ptr %6, align 8, !tbaa !35
  %9 = load ptr, ptr %5, align 8, !tbaa !117
  %10 = load ptr, ptr %9, align 8, !tbaa !41
  %11 = getelementptr inbounds ptr, ptr %10, i64 2
  %12 = load ptr, ptr %11, align 8
  %13 = call noundef i32 %12(ptr noundef nonnull align 8 dereferenceable(8) %9)
  %14 = icmp sgt i32 %13, 1
  br i1 %14, label %15, label %22

15:                                               ; preds = %3
  %16 = call ptr @__cxa_allocate_exception(i64 40) #18
  invoke void @_ZN6gmxapi10UsageErrorCI2NS_14BasicExceptionIS0_EEEPKc(ptr noundef nonnull align 8 dereferenceable(40) %16, ptr noundef @.str.2)
          to label %17 unwind label %18

17:                                               ; preds = %15
  call void @__cxa_throw(ptr %16, ptr @_ZTIN6gmxapi10UsageErrorE, ptr @_ZN6gmxapi14BasicExceptionINS_10UsageErrorEED2Ev) #20
  unreachable

18:                                               ; preds = %15
  %19 = landingpad { ptr, i32 }
          cleanup
  %20 = extractvalue { ptr, i32 } %19, 0
  store ptr %20, ptr %7, align 8
  %21 = extractvalue { ptr, i32 } %19, 1
  store i32 %21, ptr %8, align 4
  call void @__cxa_free_exception(ptr %16) #18
  br label %23

22:                                               ; preds = %3
  call void @_ZN6gmxapi13createContextEv(ptr dead_on_unwind writable sret(%"class.gmxapi::Context") align 8 %0)
  ret void

23:                                               ; preds = %18
  %24 = load ptr, ptr %7, align 8
  %25 = load i32, ptr %8, align 4
  %26 = insertvalue { ptr, i32 } poison, ptr %24, 0
  %27 = insertvalue { ptr, i32 } %26, i32 %25, 1
  resume { ptr, i32 } %27
}

; Function Attrs: mustprogress uwtable
define void @_ZN6gmxapi13createContextERKNS_18ResourceAssignmentE(ptr dead_on_unwind noalias writable sret(%"class.gmxapi::Context") align 8 %0, ptr noundef nonnull align 8 dereferenceable(8) %1) #0 {
  %3 = alloca ptr, align 8
  %4 = alloca ptr, align 8
  %5 = alloca %"struct.std::integral_constant", align 1
  store ptr %0, ptr %3, align 8
  store ptr %1, ptr %4, align 8, !tbaa !117
  %6 = load ptr, ptr %4, align 8, !tbaa !117
  call void @llvm.lifetime.start.p0(i64 1, ptr %5) #18
  call void @_ZN6gmxapiL13createContextERKNS_18ResourceAssignmentERKSt17integral_constantIbLb0EE(ptr dead_on_unwind writable sret(%"class.gmxapi::Context") align 8 %0, ptr noundef nonnull align 8 dereferenceable(8) %6, ptr noundef nonnull align 1 dereferenceable(1) %5)
  call void @llvm.lifetime.end.p0(i64 1, ptr %5) #18
  ret void
}