; Function Attrs: mustprogress uwtable
define void @_ZN6gmxapi13createContextERKNS_18ResourceAssignmentE(ptr dead_on_unwind noalias writable sret(%"class.gmxapi::Context") align 8 %0, ptr noundef nonnull align 8 dereferenceable(8) %1) local_unnamed_addr #0 personality ptr @__gxx_personality_v0 {
  %3 = load ptr, ptr %1, align 8, !tbaa !15, !noalias !39
  %4 = getelementptr inbounds nuw i8, ptr %3, i64 16
  %5 = load ptr, ptr %4, align 8, !noalias !39
  %6 = tail call noundef i32 %5(ptr noundef nonnull align 8 dereferenceable(8) %1), !noalias !39
  %7 = icmp sgt i32 %6, 1
  br i1 %7, label %8, label %_ZN6gmxapiL13createContextERKNS_18ResourceAssignmentERKSt17integral_constantIbLb0EE.exit

8:                                                ; preds = %2
  %9 = tail call ptr @__cxa_allocate_exception(i64 40) #21, !noalias !39
  invoke void @_ZN6gmxapi10UsageErrorCI2NS_14BasicExceptionIS0_EEEPKc(ptr noundef nonnull align 8 dereferenceable(40) %9, ptr noundef nonnull @.str.2)
          to label %10 unwind label %11, !noalias !39

10:                                               ; preds = %8
  tail call void @__cxa_throw(ptr nonnull %9, ptr nonnull @_ZTIN6gmxapi10UsageErrorE, ptr nonnull @_ZN6gmxapi14BasicExceptionINS_10UsageErrorEED2Ev) #22, !noalias !39
  unreachable

11:                                               ; preds = %8
  %12 = landingpad { ptr, i32 }
          cleanup
  tail call void @__cxa_free_exception(ptr nonnull %9) #21, !noalias !39
  resume { ptr, i32 } %12

_ZN6gmxapiL13createContextERKNS_18ResourceAssignmentERKSt17integral_constantIbLb0EE.exit: ; preds = %2
  tail call void @_ZN6gmxapi13createContextEv(ptr dead_on_unwind writable sret(%"class.gmxapi::Context") align 8 %0)
  ret void
}